#include <math.h>
#include <stdio.h>
#include <stdlib.h>
#include <string.h>

int main(){
	int i,k=1,l,e;
	char s[501],g[501];
	double n,r;
	scanf("%lf",&n);
	scanf("%s%s",s,g);
	l=strlen(s);
	e=strlen(g);
	if(l!=e)
	{
		printf("error");
	}
	else
	{
	    for(i=0;s[i];i++)
		{
	    	if(((s[i]=='A')||(s[i]=='T')||(s[i]=='C')||(s[i]=='G'))&&((g[i]=='A')||(g[i]=='T')||(g[i]=='C')||(g[i]=='G')))
			{
				if(g[i]==s[i])
				{
					k++;
				}
			}
			else
			{
				k=0;
				break;
			}
		}
		if(k==0)
		{
			printf("error");
		}
		else
		{
			k--;
		    r=1.0*k/l;
		    if(r>n)
			{
		    	printf("yes");
			}
		    else
			{
		    	printf("no");
			}
		}
	}
	return 0;
}			
